; Function Attrs: mustprogress nofree norecurse nosync nounwind willreturn memory(read, inaccessiblemem: none) uwtable
define hidden i32 @PixelForIndex8Gray(ptr nocapture noundef readonly %0, i32 noundef %1) local_unnamed_addr #3 {
  %3 = and i32 %1, 255
  %4 = lshr i32 %1, 8
  %5 = and i32 %4, 255
  %6 = lshr i32 %1, 16
  %7 = and i32 %6, 255
  %8 = mul nuw nsw i32 %7, 77
  %9 = mul nuw nsw i32 %5, 150
  %10 = mul nuw nsw i32 %3, 29
  %11 = add nuw nsw i32 %10, 128
  %12 = add nuw nsw i32 %11, %9
  %13 = add nuw nsw i32 %12, %8
  %14 = lshr i32 %13, 8
  %15 = getelementptr inbounds i8, ptr %0, i64 80
  %16 = load ptr, ptr %15, align 8
  %17 = zext nneg i32 %14 to i64
  %18 = getelementptr inbounds i32, ptr %16, i64 %17
  %19 = load i32, ptr %18, align 4
  ret i32 %19
}